; Function Attrs: mustprogress uwtable
define noundef ptr @_Z13opt2parg_enumPKciP7t_pargs(ptr noundef %0, i32 noundef %1, ptr nocapture noundef readonly %2) local_unnamed_addr #1 personality ptr @__gxx_personality_v0 {
  %4 = alloca %"class.std::filesystem::__cxx11::path", align 8
  %5 = icmp sgt i32 %1, 0
  br i1 %5, label %.lr.ph.preheader, label %._crit_edge

.lr.ph.preheader:                                 ; preds = %3
  %wide.trip.count = zext nneg i32 %1 to i64
  br label %.lr.ph

6:                                                ; preds = %.lr.ph
  %indvars.iv.next = add nuw nsw i64 %indvars.iv, 1
  %exitcond.not = icmp eq i64 %indvars.iv.next, %wide.trip.count
  br i1 %exitcond.not, label %._crit_edge, label %.lr.ph, !llvm.loop !12

.lr.ph:                                           ; preds = %.lr.ph.preheader, %6
  %indvars.iv = phi i64 [ 0, %.lr.ph.preheader ], [ %indvars.iv.next, %6 ]
  %7 = getelementptr inbounds %struct.t_pargs, ptr %2, i64 %indvars.iv
  %8 = load ptr, ptr %7, align 8
  %9 = tail call i32 @strcmp(ptr noundef nonnull dereferenceable(1) %8, ptr noundef nonnull dereferenceable(1) %0) #17
  %10 = icmp eq i32 %9, 0
  br i1 %10, label %11, label %6

11:                                               ; preds = %.lr.ph
  %12 = getelementptr inbounds i8, ptr %7, i64 16
  %13 = load ptr, ptr %12, align 8
  %14 = load ptr, ptr %13, align 8
  ret ptr %14

._crit_edge:                                      ; preds = %6, %3
  call void @_ZNSt10filesystem7__cxx114pathC2IA127_cS1_EERKT_NS1_6formatE(ptr noundef nonnull align 8 dereferenceable(40) %4, ptr noundef nonnull align 1 dereferenceable(127) @.str, i8 noundef zeroext 2)
  invoke void (i32, ptr, i32, ptr, ...) @_Z9gmx_fataliRKNSt10filesystem7__cxx114pathEiPKcz(i32 noundef 0, ptr noundef nonnull align 8 dereferenceable(40) %4, i32 noundef 174, ptr noundef nonnull @.str.5, ptr noundef %0) #18
          to label %15 unwind label %16

15:                                               ; preds = %._crit_edge
  unreachable

16:                                               ; preds = %._crit_edge
  %17 = landingpad { ptr, i32 }
          cleanup
  call void @_ZNSt10filesystem7__cxx114pathD2Ev(ptr noundef nonnull align 8 dereferenceable(40) %4) #19
  resume { ptr, i32 } %17
}